target datalayout = "e-m:e-p270:32:32-p271:32:32-p272:64:64-i64:64-i128:128-f80:128-n8:16:32:64-S128"
target triple = "x86_64-pc-linux-gnu"

%class.mpz = type { i32, i8, ptr }
%class.mpbq = type <{ %class.mpz, i32, [4 x i8] }>
%class.mpbq_manager = type { ptr, %class.mpz, %class.mpz, %class.mpbq, %class.mpz, %class.mpz, %class.mpz, %class.mpbq, %class.mpbq, %class.mpz, %class.mpz, %class.mpz }

; Function Attrs: mustprogress uwtable
define linkonce_odr hidden void @_ZN11mpz_managerILb0EE3delER3mpz(ptr noundef nonnull align 8 dereferenceable(600) %0, ptr noundef nonnull align 8 dereferenceable(16) %1) #4 comdat align 2 {
  %3 = alloca ptr, align 8
  %4 = alloca ptr, align 8
  store ptr %0, ptr %3, align 8, !tbaa !22
  store ptr %1, ptr %4, align 8, !tbaa !10
  %5 = load ptr, ptr %3, align 8
  %6 = load ptr, ptr %4, align 8, !tbaa !10
  call void @_ZN11mpz_managerILb0EE3delEPS0_R3mpz(ptr noundef %5, ptr noundef nonnull align 8 dereferenceable(16) %6)
  ret void
}

; Function Attrs: mustprogress uwtable
define linkonce_odr hidden void @_ZN12mpbq_manager3delER4mpbq(ptr noundef nonnull align 8 dereferenceable(208) %0, ptr noundef nonnull align 8 dereferenceable(20) %1) #4 comdat align 2 {
  %3 = alloca ptr, align 8
  %4 = alloca ptr, align 8
  store ptr %0, ptr %3, align 8, !tbaa !20
  store ptr %1, ptr %4, align 8, !tbaa !3
  %5 = load ptr, ptr %3, align 8
  %6 = getelementptr inbounds nuw %class.mpbq_manager, ptr %5, i32 0, i32 0
  %7 = load ptr, ptr %6, align 8, !tbaa !26
  %8 = load ptr, ptr %4, align 8, !tbaa !3
  %9 = getelementptr inbounds nuw %class.mpbq, ptr %8, i32 0, i32 0
  call void @_ZN11mpz_managerILb0EE3delER3mpz(ptr noundef nonnull align 8 dereferenceable(600) %7, ptr noundef nonnull align 8 dereferenceable(16) %9)
  ret void
}

; Function Attrs: mustprogress nounwind uwtable
define hidden void @_ZN12mpbq_managerD2Ev(ptr noundef nonnull align 8 dereferenceable(208) %0) unnamed_addr #6 align 2 personality ptr @__gxx_personality_v0 {
  %2 = alloca ptr, align 8
  store ptr %0, ptr %2, align 8, !tbaa !20
  %3 = load ptr, ptr %2, align 8
  %4 = getelementptr inbounds nuw %class.mpbq_manager, ptr %3, i32 0, i32 3
  invoke void @_ZN12mpbq_manager3delER4mpbq(ptr noundef nonnull align 8 dereferenceable(208) %3, ptr noundef nonnull align 8 dereferenceable(20) %4)
          to label %5 unwind label %42

5:                                                ; preds = %1
  %6 = getelementptr inbounds nuw %class.mpbq_manager, ptr %3, i32 0, i32 0
  %7 = load ptr, ptr %6, align 8, !tbaa !26
  %8 = getelementptr inbounds nuw %class.mpbq_manager, ptr %3, i32 0, i32 1
  invoke void @_ZN11mpz_managerILb0EE3delER3mpz(ptr noundef nonnull align 8 dereferenceable(600) %7, ptr noundef nonnull align 8 dereferenceable(16) %8)
          to label %9 unwind label %42

9:                                                ; preds = %5
  %10 = getelementptr inbounds nuw %class.mpbq_manager, ptr %3, i32 0, i32 0
  %11 = load ptr, ptr %10, align 8, !tbaa !26
  %12 = getelementptr inbounds nuw %class.mpbq_manager, ptr %3, i32 0, i32 2
  invoke void @_ZN11mpz_managerILb0EE3delER3mpz(ptr noundef nonnull align 8 dereferenceable(600) %11, ptr noundef nonnull align 8 dereferenceable(16) %12)
          to label %13 unwind label %42

13:                                               ; preds = %9
  %14 = getelementptr inbounds nuw %class.mpbq_manager, ptr %3, i32 0, i32 0
  %15 = load ptr, ptr %14, align 8, !tbaa !26
  %16 = getelementptr inbounds nuw %class.mpbq_manager, ptr %3, i32 0, i32 4
  invoke void @_ZN11mpz_managerILb0EE3delER3mpz(ptr noundef nonnull align 8 dereferenceable(600) %15, ptr noundef nonnull align 8 dereferenceable(16) %16)
          to label %17 unwind label %42

17:                                               ; preds = %13
  %18 = getelementptr inbounds nuw %class.mpbq_manager, ptr %3, i32 0, i32 0
  %19 = load ptr, ptr %18, align 8, !tbaa !26
  %20 = getelementptr inbounds nuw %class.mpbq_manager, ptr %3, i32 0, i32 5
  invoke void @_ZN11mpz_managerILb0EE3delER3mpz(ptr noundef nonnull align 8 dereferenceable(600) %19, ptr noundef nonnull align 8 dereferenceable(16) %20)
          to label %21 unwind label %42

21:                                               ; preds = %17
  %22 = getelementptr inbounds nuw %class.mpbq_manager, ptr %3, i32 0, i32 0
  %23 = load ptr, ptr %22, align 8, !tbaa !26
  %24 = getelementptr inbounds nuw %class.mpbq_manager, ptr %3, i32 0, i32 6
  invoke void @_ZN11mpz_managerILb0EE3delER3mpz(ptr noundef nonnull align 8 dereferenceable(600) %23, ptr noundef nonnull align 8 dereferenceable(16) %24)
          to label %25 unwind label %42

25:                                               ; preds = %21
  %26 = getelementptr inbounds nuw %class.mpbq_manager, ptr %3, i32 0, i32 7
  invoke void @_ZN12mpbq_manager3delER4mpbq(ptr noundef nonnull align 8 dereferenceable(208) %3, ptr noundef nonnull align 8 dereferenceable(20) %26)
          to label %27 unwind label %42

27:                                               ; preds = %25
  %28 = getelementptr inbounds nuw %class.mpbq_manager, ptr %3, i32 0, i32 8
  invoke void @_ZN12mpbq_manager3delER4mpbq(ptr noundef nonnull align 8 dereferenceable(208) %3, ptr noundef nonnull align 8 dereferenceable(20) %28)
          to label %29 unwind label %42

29:                                               ; preds = %27
  %30 = getelementptr inbounds nuw %class.mpbq_manager, ptr %3, i32 0, i32 0
  %31 = load ptr, ptr %30, align 8, !tbaa !26
  %32 = getelementptr inbounds nuw %class.mpbq_manager, ptr %3, i32 0, i32 9
  invoke void @_ZN11mpz_managerILb0EE3delER3mpz(ptr noundef nonnull align 8 dereferenceable(600) %31, ptr noundef nonnull align 8 dereferenceable(16) %32)
          to label %33 unwind label %42

33:                                               ; preds = %29
  %34 = getelementptr inbounds nuw %class.mpbq_manager, ptr %3, i32 0, i32 0
  %35 = load ptr, ptr %34, align 8, !tbaa !26
  %36 = getelementptr inbounds nuw %class.mpbq_manager, ptr %3, i32 0, i32 10
  invoke void @_ZN11mpz_managerILb0EE3delER3mpz(ptr noundef nonnull align 8 dereferenceable(600) %35, ptr noundef nonnull align 8 dereferenceable(16) %36)
          to label %37 unwind label %42

37:                                               ; preds = %33
  %38 = getelementptr inbounds nuw %class.mpbq_manager, ptr %3, i32 0, i32 0
  %39 = load ptr, ptr %38, align 8, !tbaa !26
  %40 = getelementptr inbounds nuw %class.mpbq_manager, ptr %3, i32 0, i32 11
  invoke void @_ZN11mpz_managerILb0EE3delER3mpz(ptr noundef nonnull align 8 dereferenceable(600) %39, ptr noundef nonnull align 8 dereferenceable(16) %40)
          to label %41 unwind label %42

41:                                               ; preds = %37
  ret void

42:                                               ; preds = %37, %33, %29, %27, %25, %21, %17, %13, %9, %5, %1
  %43 = landingpad { ptr, i32 }
          catch ptr null
  %44 = extractvalue { ptr, i32 } %43, 0
  call void @__clang_call_terminate(ptr %44) #17
  unreachable
}