; Function Attrs: mustprogress nounwind uwtable
define hidden void @_ZN12mpbq_managerD2Ev(ptr noundef nonnull align 8 dereferenceable(208) %0) unnamed_addr #5 align 2 personality ptr @__gxx_personality_v0 {
  %2 = getelementptr inbounds nuw i8, ptr %0, i64 40
  %3 = load ptr, ptr %0, align 8, !tbaa !26
  invoke void @_ZN11mpz_managerILb0EE3delEPS0_R3mpz(ptr noundef nonnull align 8 dereferenceable(600) %3, ptr noundef nonnull align 8 dereferenceable(20) %2)
          to label %_ZN12mpbq_manager3delER4mpbq.exit unwind label %24

_ZN12mpbq_manager3delER4mpbq.exit:                ; preds = %1
  %4 = load ptr, ptr %0, align 8, !tbaa !26
  %5 = getelementptr inbounds nuw i8, ptr %0, i64 8
  invoke void @_ZN11mpz_managerILb0EE3delEPS0_R3mpz(ptr noundef nonnull align 8 dereferenceable(600) %4, ptr noundef nonnull align 8 dereferenceable(16) %5)
          to label %_ZN11mpz_managerILb0EE3delER3mpz.exit unwind label %24

_ZN11mpz_managerILb0EE3delER3mpz.exit:            ; preds = %_ZN12mpbq_manager3delER4mpbq.exit
  %6 = load ptr, ptr %0, align 8, !tbaa !26
  %7 = getelementptr inbounds nuw i8, ptr %0, i64 24
  invoke void @_ZN11mpz_managerILb0EE3delEPS0_R3mpz(ptr noundef nonnull align 8 dereferenceable(600) %6, ptr noundef nonnull align 8 dereferenceable(16) %7)
          to label %_ZN11mpz_managerILb0EE3delER3mpz.exit1 unwind label %24

_ZN11mpz_managerILb0EE3delER3mpz.exit1:           ; preds = %_ZN11mpz_managerILb0EE3delER3mpz.exit
  %8 = load ptr, ptr %0, align 8, !tbaa !26
  %9 = getelementptr inbounds nuw i8, ptr %0, i64 64
  invoke void @_ZN11mpz_managerILb0EE3delEPS0_R3mpz(ptr noundef nonnull align 8 dereferenceable(600) %8, ptr noundef nonnull align 8 dereferenceable(16) %9)
          to label %_ZN11mpz_managerILb0EE3delER3mpz.exit2 unwind label %24

_ZN11mpz_managerILb0EE3delER3mpz.exit2:           ; preds = %_ZN11mpz_managerILb0EE3delER3mpz.exit1
  %10 = load ptr, ptr %0, align 8, !tbaa !26
  %11 = getelementptr inbounds nuw i8, ptr %0, i64 80
  invoke void @_ZN11mpz_managerILb0EE3delEPS0_R3mpz(ptr noundef nonnull align 8 dereferenceable(600) %10, ptr noundef nonnull align 8 dereferenceable(16) %11)
          to label %_ZN11mpz_managerILb0EE3delER3mpz.exit3 unwind label %24

_ZN11mpz_managerILb0EE3delER3mpz.exit3:           ; preds = %_ZN11mpz_managerILb0EE3delER3mpz.exit2
  %12 = load ptr, ptr %0, align 8, !tbaa !26
  %13 = getelementptr inbounds nuw i8, ptr %0, i64 96
  invoke void @_ZN11mpz_managerILb0EE3delEPS0_R3mpz(ptr noundef nonnull align 8 dereferenceable(600) %12, ptr noundef nonnull align 8 dereferenceable(16) %13)
          to label %_ZN11mpz_managerILb0EE3delER3mpz.exit4 unwind label %24

_ZN11mpz_managerILb0EE3delER3mpz.exit4:           ; preds = %_ZN11mpz_managerILb0EE3delER3mpz.exit3
  %14 = getelementptr inbounds nuw i8, ptr %0, i64 112
  %15 = load ptr, ptr %0, align 8, !tbaa !26
  invoke void @_ZN11mpz_managerILb0EE3delEPS0_R3mpz(ptr noundef nonnull align 8 dereferenceable(600) %15, ptr noundef nonnull align 8 dereferenceable(20) %14)
          to label %_ZN12mpbq_manager3delER4mpbq.exit5 unwind label %24

_ZN12mpbq_manager3delER4mpbq.exit5:               ; preds = %_ZN11mpz_managerILb0EE3delER3mpz.exit4
  %16 = getelementptr inbounds nuw i8, ptr %0, i64 136
  %17 = load ptr, ptr %0, align 8, !tbaa !26
  invoke void @_ZN11mpz_managerILb0EE3delEPS0_R3mpz(ptr noundef nonnull align 8 dereferenceable(600) %17, ptr noundef nonnull align 8 dereferenceable(20) %16)
          to label %_ZN12mpbq_manager3delER4mpbq.exit6 unwind label %24

_ZN12mpbq_manager3delER4mpbq.exit6:               ; preds = %_ZN12mpbq_manager3delER4mpbq.exit5
  %18 = load ptr, ptr %0, align 8, !tbaa !26
  %19 = getelementptr inbounds nuw i8, ptr %0, i64 160
  invoke void @_ZN11mpz_managerILb0EE3delEPS0_R3mpz(ptr noundef nonnull align 8 dereferenceable(600) %18, ptr noundef nonnull align 8 dereferenceable(16) %19)
          to label %_ZN11mpz_managerILb0EE3delER3mpz.exit7 unwind label %24

_ZN11mpz_managerILb0EE3delER3mpz.exit7:           ; preds = %_ZN12mpbq_manager3delER4mpbq.exit6
  %20 = load ptr, ptr %0, align 8, !tbaa !26
  %21 = getelementptr inbounds nuw i8, ptr %0, i64 176
  invoke void @_ZN11mpz_managerILb0EE3delEPS0_R3mpz(ptr noundef nonnull align 8 dereferenceable(600) %20, ptr noundef nonnull align 8 dereferenceable(16) %21)
          to label %_ZN11mpz_managerILb0EE3delER3mpz.exit8 unwind label %24

_ZN11mpz_managerILb0EE3delER3mpz.exit8:           ; preds = %_ZN11mpz_managerILb0EE3delER3mpz.exit7
  %22 = load ptr, ptr %0, align 8, !tbaa !26
  %23 = getelementptr inbounds nuw i8, ptr %0, i64 192
  invoke void @_ZN11mpz_managerILb0EE3delEPS0_R3mpz(ptr noundef nonnull align 8 dereferenceable(600) %22, ptr noundef nonnull align 8 dereferenceable(16) %23)
          to label %_ZN11mpz_managerILb0EE3delER3mpz.exit9 unwind label %24

_ZN11mpz_managerILb0EE3delER3mpz.exit9:           ; preds = %_ZN11mpz_managerILb0EE3delER3mpz.exit8
  ret void

24:                                               ; preds = %_ZN11mpz_managerILb0EE3delER3mpz.exit8, %_ZN11mpz_managerILb0EE3delER3mpz.exit7, %_ZN12mpbq_manager3delER4mpbq.exit6, %_ZN12mpbq_manager3delER4mpbq.exit5, %_ZN11mpz_managerILb0EE3delER3mpz.exit4, %_ZN11mpz_managerILb0EE3delER3mpz.exit3, %_ZN11mpz_managerILb0EE3delER3mpz.exit2, %_ZN11mpz_managerILb0EE3delER3mpz.exit1, %_ZN11mpz_managerILb0EE3delER3mpz.exit, %_ZN12mpbq_manager3delER4mpbq.exit, %1
  %25 = landingpad { ptr, i32 }
          catch ptr null
  %26 = extractvalue { ptr, i32 } %25, 0
  tail call void @__clang_call_terminate(ptr %26) #19
  unreachable
}